Certificate:
    Data:
        Version: 3 (0x2)
        Serial Number:
            cd:63:3a:9a:ca:73:b5:dc:1d:fb:3b:b2:55:89:b2:c6
        Signature Algorithm: sha256WithRSAEncryption
        Issuer: CN=Easy-RSA CA
        Validity
            Not Before: Apr  2 08:49:57 2024 GMT
            Not After : Mar 31 08:49:57 2034 GMT
        Subject: CN=2
        Subject Public Key Info:
            Public Key Algorithm: rsaEncryption
                Public-Key: (2048 bit)
                Modulus:
                    00:a5:de:b7:7e:dd:d9:9e:5d:61:13:19:1b:0c:c5:
                    58:7f:d6:8c:22:7e:ff:af:67:1a:7e:81:a1:18:11:
                    ee:49:38:21:a3:5e:96:47:20:aa:f0:3e:34:19:d2:
                    6b:b9:db:93:75:e4:45:af:33:51:38:9c:3b:7c:26:
                    04:82:2a:05:1b:38:39:74:4b:83:3d:d5:ae:f5:d4:
                    43:67:6c:9a:4a:ba:ec:aa:54:16:f0:f2:d9:d4:8b:
                    19:b4:78:9d:12:49:f7:90:58:94:32:60:6e:c6:2d:
                    59:39:9a:c8:5d:db:9e:f2:56:8f:47:40:dd:9f:41:
                    ce:b5:a5:72:02:9a:05:76:99:a3:b5:c2:2b:07:6f:
                    11:36:08:30:4b:39:81:16:d1:41:25:ab:ca:11:c4:
                    a5:48:90:83:64:49:25:74:f1:bc:ee:a4:9e:ec:bc:
                    f5:e0:ae:dc:a0:50:66:2b:45:9d:7d:fc:b3:8b:bd:
                    60:e1:f9:e3:8d:1c:76:6f:d7:1b:14:6d:54:c7:aa:
                    6c:7a:0b:11:f0:51:ab:d2:6c:ef:56:6e:48:3a:6b:
                    60:f3:90:1b:2b:30:98:90:11:66:e0:6d:6b:e5:e6:
                    98:68:a6:53:9c:7d:91:f8:99:c0:f4:cd:eb:d5:9f:
                    cc:da:17:23:03:b7:5d:fa:15:e2:92:94:46:eb:63:
                    eb:b7
                Exponent: 65537 (0x10001)
        X509v3 extensions:
            X509v3 Basic Constraints: 
                CA:FALSE
            X509v3 Subject Key Identifier: 
                DE:34:11:E0:BB:16:63:3C:10:4B:24:76:FD:E1:15:B4:BF:AC:B5:CE
            X509v3 Authority Key Identifier: 
                keyid:10:3F:9F:8B:EB:6D:E1:38:BD:D4:48:9E:BA:D5:13:97:BD:2E:AF:E1
                DirName:/CN=Easy-RSA CA
                serial:51:43:5C:4D:BD:0F:03:83:55:32:FA:D9:28:2E:4A:98:29:DE:AB:F5
            X509v3 Extended Key Usage: 
                TLS Web Client Authentication
            X509v3 Key Usage: 
                Digital Signature
    Signature Algorithm: sha256WithRSAEncryption
    Signature Value:
        34:17:20:25:35:af:ec:6d:2b:33:ff:ff:0d:2f:29:86:0a:60:
        23:8e:84:ab:17:68:eb:f4:7f:dc:c0:56:74:63:2c:ce:6f:e8:
        bd:5e:c1:cd:11:69:7a:b0:01:bb:44:fd:30:c2:84:b1:00:1b:
        78:c0:bf:82:78:0e:44:e5:25:c2:68:09:d1:55:d6:21:88:5d:
        b4:ff:02:e6:0b:42:11:ac:94:d3:7d:9f:5f:e3:d6:2f:84:a3:
        2f:db:69:89:71:41:ab:79:0c:9f:ff:89:54:d3:de:5c:33:b2:
        28:f7:09:5a:c8:d2:1b:05:45:db:2e:6d:b5:56:91:a1:74:88:
        d6:1b:29:ab:25:bc:c9:42:0d:85:20:68:d5:64:f5:d6:ea:b2:
        bb:78:98:1c:ba:c0:15:e7:a0:89:40:cf:a6:46:ee:96:68:cb:
        21:63:85:6a:0a:69:d9:45:89:fd:0b:15:1d:8b:39:4d:db:c6:
        db:95:a0:26:18:84:b0:da:24:a0:35:f6:58:8a:68:a4:9b:56:
        74:4f:89:bb:79:62:af:9f:16:e2:dd:17:f7:cb:3f:9b:b2:17:
        8b:5c:ab:67:ee:18:a8:ee:de:4e:71:d4:c4:a9:ad:15:ff:4f:
        5b:ab:12:e7:3e:43:e9:7d:ec:ca:ec:e4:c5:b4:a8:4e:4e:d4:
        36:d0:bf:90
-----BEGIN CERTIFICATE-----
MIIDUDCCAjigAwIBAgIRAM1jOprKc7XcHfs7slWJssYwDQYJKoZIhvcNAQELBQAw
FjEUMBIGA1UEAwwLRWFzeS1SU0EgQ0EwHhcNMjQwNDAyMDg0OTU3WhcNMzQwMzMx
MDg0OTU3WjAMMQowCAYDVQQDDAEyMIIBIjANBgkqhkiG9w0BAQEFAAOCAQ8AMIIB
CgKCAQEApd63ft3Znl1hExkbDMVYf9aMIn7/r2cafoGhGBHuSTgho16WRyCq8D40
GdJruduTdeRFrzNROJw7fCYEgioFGzg5dEuDPdWu9dRDZ2yaSrrsqlQW8PLZ1IsZ
tHidEkn3kFiUMmBuxi1ZOZrIXdue8laPR0Ddn0HOtaVyApoFdpmjtcIrB28RNggw
SzmBFtFBJavKEcSlSJCDZEkldPG87qSe7Lz14K7coFBmK0Wdffyzi71g4fnjjRx2
b9cbFG1Ux6psegsR8FGr0mzvVm5IOmtg85AbKzCYkBFm4G1r5eaYaKZTnH2R+JnA
9M3r1Z/M2hcjA7dd+hXikpRG62PrtwIDAQABo4GiMIGfMAkGA1UdEwQCMAAwHQYD
VR0OBBYEFN40EeC7FmM8EEskdv3hFbS/rLXOMFEGA1UdIwRKMEiAFBA/n4vrbeE4
vdRInrrVE5e9Lq/hoRqkGDAWMRQwEgYDVQQDDAtFYXN5LVJTQSBDQYIUUUNcTb0P
A4NVMvrZKC5KmCneq/UwEwYDVR0lBAwwCgYIKwYBBQUHAwIwCwYDVR0PBAQDAgeA
MA0GCSqGSIb3DQEBCwUAA4IBAQA0FyAlNa/sbSsz//8NLymGCmAjjoSrF2jr9H/c
wFZ0YyzOb+i9XsHNEWl6sAG7RP0wwoSxABt4wL+CeA5E5SXCaAnRVdYhiF20/wLm
C0IRrJTTfZ9f49YvhKMv22mJcUGreQyf/4lU095cM7Io9wlayNIbBUXbLm21VpGh
dIjWGymrJbzJQg2FIGjVZPXW6rK7eJgcusAV56CJQM+mRu6WaMshY4VqCmnZRYn9
CxUdizlN28bblaAmGISw2iSgNfZYimikm1Z0T4m7eWKvnxbi3Rf3yz+bsheLXKtn
7hio7t5OcdTEqa0V/09bqxLnPkPpfezK7OTFtKhOTtQ20L+Q
-----END CERTIFICATE-----
