Certificate:
    Data:
        Version: 3 (0x2)
        Serial Number:
            d7:e4:0f:36:91:a8:27:96:b8:84:5b:88:b4:26:a1:02
        Signature Algorithm: sha256WithRSAEncryption
        Issuer: CN=Easy-RSA CA
        Validity
            Not Before: Apr  1 14:29:09 2024 GMT
            Not After : Mar 30 14:29:09 2034 GMT
        Subject: CN=server
        Subject Public Key Info:
            Public Key Algorithm: rsaEncryption
                Public-Key: (2048 bit)
                Modulus:
                    00:92:74:46:34:13:fc:75:33:4e:30:04:c7:a8:1a:
                    6a:e4:1e:77:87:b8:ba:8f:68:0e:df:65:5d:18:ad:
                    ee:ba:7e:b7:a4:80:23:5d:90:97:ac:d5:ab:fc:e2:
                    49:ff:84:39:69:1b:32:7e:2a:a3:83:74:df:61:16:
                    af:19:0e:1a:05:52:de:05:b7:44:98:7f:09:06:3a:
                    67:93:d9:58:b3:0a:6d:75:80:29:99:4f:1c:bb:0e:
                    89:82:77:54:09:f8:9e:0e:9a:11:c4:f7:b4:fc:1d:
                    66:9a:40:f0:23:4b:53:fe:ae:72:1c:26:e4:e5:c7:
                    6b:ad:e7:6c:8d:14:e9:63:c6:e9:91:98:10:c6:c3:
                    22:50:d4:a4:eb:69:8b:90:ea:27:d2:b2:b9:79:67:
                    32:f5:a1:94:49:9a:af:c5:ba:e7:20:c6:fa:71:48:
                    ba:f5:16:d0:b9:77:76:87:3d:c2:bc:f0:b6:4d:85:
                    39:ed:23:dc:b2:56:c5:7a:44:20:fc:04:6e:c6:66:
                    f9:ea:b7:d8:82:ec:58:f6:8b:ca:a2:9e:14:45:1f:
                    b0:b7:72:c8:47:af:ae:58:6e:e8:0f:05:28:b9:a0:
                    80:17:6a:1c:a5:a2:28:42:dd:6c:f8:19:8a:d7:e3:
                    c0:80:2f:0e:3c:16:a0:ed:4c:86:61:e0:5a:64:71:
                    40:65
                Exponent: 65537 (0x10001)
        X509v3 extensions:
            X509v3 Basic Constraints: 
                CA:FALSE
            X509v3 Subject Key Identifier: 
                E5:8C:04:DA:EE:6E:A4:96:21:A0:4F:FA:E9:BC:1B:64:92:97:C2:13
            X509v3 Authority Key Identifier: 
                keyid:10:3F:9F:8B:EB:6D:E1:38:BD:D4:48:9E:BA:D5:13:97:BD:2E:AF:E1
                DirName:/CN=Easy-RSA CA
                serial:51:43:5C:4D:BD:0F:03:83:55:32:FA:D9:28:2E:4A:98:29:DE:AB:F5
            X509v3 Extended Key Usage: 
                TLS Web Server Authentication
            X509v3 Key Usage: 
                Digital Signature, Key Encipherment
            X509v3 Subject Alternative Name: 
                DNS:server
    Signature Algorithm: sha256WithRSAEncryption
    Signature Value:
        1f:73:fb:b9:c4:5f:55:b9:38:83:78:9b:f1:2b:9c:5f:33:c8:
        a0:55:2d:95:17:02:4f:72:3f:3a:fd:da:f0:e8:ca:c3:de:b9:
        f5:ee:e1:99:60:aa:e8:2b:72:e3:bb:94:96:9e:26:98:31:17:
        cb:ed:3a:8d:52:b5:0c:a0:44:ee:a5:97:60:18:66:09:51:e9:
        da:1e:4f:64:27:d3:62:8d:2d:2c:d8:ac:34:01:a1:a6:2f:9e:
        98:93:a1:b1:aa:fd:82:d6:84:34:a6:dc:5a:46:f5:4d:e3:59:
        0b:24:1c:40:18:3d:c0:ab:8a:68:10:df:41:60:39:97:9d:f8:
        20:c0:99:1f:e2:6f:78:67:e5:d2:e4:cc:6c:8c:b3:87:a9:7e:
        e4:54:14:55:f2:99:ae:e6:52:c7:44:68:18:35:c4:ae:83:4c:
        d3:f3:84:bd:80:01:5b:ba:a5:ac:27:78:b1:43:69:7e:a0:a8:
        87:36:35:c6:89:ac:58:06:77:6d:28:1d:cb:45:fc:87:48:6e:
        8f:54:a6:a0:df:a5:6a:73:94:da:b1:ec:ad:f7:7f:95:b3:2a:
        4d:da:39:c7:84:cf:97:6d:bd:12:83:23:99:93:ae:68:87:63:
        65:6d:c3:ce:80:19:f4:36:cb:6b:d5:9f:a3:cf:9e:1b:fe:6e:
        91:e8:ba:81
-----BEGIN CERTIFICATE-----
MIIDaDCCAlCgAwIBAgIRANfkDzaRqCeWuIRbiLQmoQIwDQYJKoZIhvcNAQELBQAw
FjEUMBIGA1UEAwwLRWFzeS1SU0EgQ0EwHhcNMjQwNDAxMTQyOTA5WhcNMzQwMzMw
MTQyOTA5WjARMQ8wDQYDVQQDDAZzZXJ2ZXIwggEiMA0GCSqGSIb3DQEBAQUAA4IB
DwAwggEKAoIBAQCSdEY0E/x1M04wBMeoGmrkHneHuLqPaA7fZV0Yre66frekgCNd
kJes1av84kn/hDlpGzJ+KqODdN9hFq8ZDhoFUt4Ft0SYfwkGOmeT2VizCm11gCmZ
Txy7DomCd1QJ+J4OmhHE97T8HWaaQPAjS1P+rnIcJuTlx2ut52yNFOljxumRmBDG
wyJQ1KTraYuQ6ifSsrl5ZzL1oZRJmq/FuucgxvpxSLr1FtC5d3aHPcK88LZNhTnt
I9yyVsV6RCD8BG7GZvnqt9iC7Fj2i8qinhRFH7C3cshHr65YbugPBSi5oIAXahyl
oihC3Wz4GYrX48CALw48FqDtTIZh4FpkcUBlAgMBAAGjgbUwgbIwCQYDVR0TBAIw
ADAdBgNVHQ4EFgQU5YwE2u5upJYhoE/66bwbZJKXwhMwUQYDVR0jBEowSIAUED+f
i+tt4Ti91EieutUTl70ur+GhGqQYMBYxFDASBgNVBAMMC0Vhc3ktUlNBIENBghRR
Q1xNvQ8Dg1Uy+tkoLkqYKd6r9TATBgNVHSUEDDAKBggrBgEFBQcDATALBgNVHQ8E
BAMCBaAwEQYDVR0RBAowCIIGc2VydmVyMA0GCSqGSIb3DQEBCwUAA4IBAQAfc/u5
xF9VuTiDeJvxK5xfM8igVS2VFwJPcj86/drw6MrD3rn17uGZYKroK3Lju5SWniaY
MRfL7TqNUrUMoETupZdgGGYJUenaHk9kJ9NijS0s2Kw0AaGmL56Yk6Gxqv2C1oQ0
ptxaRvVN41kLJBxAGD3Aq4poEN9BYDmXnfggwJkf4m94Z+XS5MxsjLOHqX7kVBRV
8pmu5lLHRGgYNcSug0zT84S9gAFbuqWsJ3ixQ2l+oKiHNjXGiaxYBndtKB3LRfyH
SG6PVKag36Vqc5Taseyt93+VsypN2jnHhM+Xbb0SgyOZk65oh2NlbcPOgBn0Nstr
1Z+jz54b/m6R6LqB
-----END CERTIFICATE-----
