Certificate:
    Data:
        Version: 3 (0x2)
        Serial Number:
            af:7a:5a:4a:d1:a5:c2:95:58:30:b4:7c:fa:97:f2:93
        Signature Algorithm: sha256WithRSAEncryption
        Issuer: CN=Easy-RSA CA
        Validity
            Not Before: Apr  1 14:37:49 2024 GMT
            Not After : Mar 30 14:37:49 2034 GMT
        Subject: CN=1
        Subject Public Key Info:
            Public Key Algorithm: rsaEncryption
                Public-Key: (2048 bit)
                Modulus:
                    00:c0:db:08:6f:f1:85:db:95:13:dc:11:a8:88:3a:
                    02:da:e3:a9:95:71:8a:2f:20:d7:f7:57:3c:92:07:
                    c1:f2:35:c3:47:b0:05:79:5e:f5:1a:d3:8f:42:84:
                    33:2a:0b:ba:3b:82:f2:ff:0d:af:08:7b:c1:a1:b7:
                    d2:9c:c8:1e:d7:a9:3f:35:0d:a4:75:1b:e6:32:be:
                    52:6c:74:d3:af:fb:4b:4b:cc:19:6a:f9:a1:be:73:
                    5d:2a:64:34:bc:5a:44:dd:51:6a:4f:86:22:b3:cc:
                    d7:07:ec:42:68:21:04:60:92:a0:88:4c:04:10:4f:
                    90:05:c2:f2:c5:b2:88:c2:f6:7c:7e:67:d2:eb:77:
                    cf:bc:5e:08:40:0c:b4:cf:04:5d:0d:87:9f:41:05:
                    47:9c:17:a4:16:a1:ea:76:72:fe:24:3f:f9:bf:8d:
                    77:da:89:57:ea:e8:bc:e2:c9:eb:cb:03:ee:79:2c:
                    dd:31:76:5d:c2:17:20:29:af:73:0d:ab:e7:7d:e6:
                    12:e6:d9:cb:8f:ee:4f:0e:ca:37:4c:67:d3:4b:cd:
                    22:83:2f:77:14:ad:f8:f5:bd:3d:3f:f8:67:4a:53:
                    6a:35:1c:f4:8e:bb:9c:d6:c4:58:5e:6c:8c:d7:98:
                    85:38:9d:6f:20:f4:2d:d2:eb:c1:e6:99:31:55:68:
                    17:d9
                Exponent: 65537 (0x10001)
        X509v3 extensions:
            X509v3 Basic Constraints: 
                CA:FALSE
            X509v3 Subject Key Identifier: 
                BC:30:A8:EB:09:BF:B4:B9:C2:97:48:68:52:69:9F:79:00:91:45:DA
            X509v3 Authority Key Identifier: 
                keyid:10:3F:9F:8B:EB:6D:E1:38:BD:D4:48:9E:BA:D5:13:97:BD:2E:AF:E1
                DirName:/CN=Easy-RSA CA
                serial:51:43:5C:4D:BD:0F:03:83:55:32:FA:D9:28:2E:4A:98:29:DE:AB:F5
            X509v3 Extended Key Usage: 
                TLS Web Client Authentication
            X509v3 Key Usage: 
                Digital Signature
    Signature Algorithm: sha256WithRSAEncryption
    Signature Value:
        2f:ac:be:6e:ea:af:98:2e:77:7a:98:0b:98:09:d9:e7:02:5a:
        3a:72:d9:94:77:45:cb:6f:7d:c7:8c:f9:66:ca:a0:c2:c9:e0:
        8e:4d:a0:ba:1b:1a:5b:d2:67:ba:cd:10:75:67:47:76:6e:97:
        f8:36:23:c8:b9:e3:18:f4:0f:01:4c:c3:08:09:5e:a2:a9:00:
        68:56:8a:a7:ad:e6:f5:41:d2:e3:4f:71:6e:05:c2:2f:f5:de:
        5e:be:fb:5d:06:72:82:6c:50:51:2a:f7:c4:38:c3:b9:3c:57:
        06:6c:37:c2:28:39:0d:42:0b:4d:fa:82:94:64:8b:e7:3b:b4:
        0e:d0:9a:f9:81:6c:aa:2c:ad:f3:cb:30:55:cd:85:a3:14:a6:
        17:45:b1:1e:01:cd:01:9b:dd:9d:61:de:48:be:4e:35:b0:1f:
        0d:53:d9:a6:9b:27:f9:f6:cb:4e:bc:b0:3f:59:31:cb:7b:96:
        60:f3:7d:17:e0:8b:1c:64:2e:79:34:54:cf:5e:5e:b5:1a:7b:
        b7:60:96:0d:e7:d5:c0:5b:14:8b:ce:5e:a2:80:4c:88:fe:4b:
        c1:e8:1b:d4:5c:15:11:55:87:60:6a:42:31:1b:d0:b2:06:2a:
        d1:a6:2c:9a:0f:e7:af:86:d8:10:e5:cb:ee:84:0a:97:1f:c6:
        5c:67:5f:1d
-----BEGIN CERTIFICATE-----
MIIDUDCCAjigAwIBAgIRAK96WkrRpcKVWDC0fPqX8pMwDQYJKoZIhvcNAQELBQAw
FjEUMBIGA1UEAwwLRWFzeS1SU0EgQ0EwHhcNMjQwNDAxMTQzNzQ5WhcNMzQwMzMw
MTQzNzQ5WjAMMQowCAYDVQQDDAExMIIBIjANBgkqhkiG9w0BAQEFAAOCAQ8AMIIB
CgKCAQEAwNsIb/GF25UT3BGoiDoC2uOplXGKLyDX91c8kgfB8jXDR7AFeV71GtOP
QoQzKgu6O4Ly/w2vCHvBobfSnMge16k/NQ2kdRvmMr5SbHTTr/tLS8wZavmhvnNd
KmQ0vFpE3VFqT4Yis8zXB+xCaCEEYJKgiEwEEE+QBcLyxbKIwvZ8fmfS63fPvF4I
QAy0zwRdDYefQQVHnBekFqHqdnL+JD/5v4132olX6ui84snrywPueSzdMXZdwhcg
Ka9zDavnfeYS5tnLj+5PDso3TGfTS80igy93FK349b09P/hnSlNqNRz0jruc1sRY
XmyM15iFOJ1vIPQt0uvB5pkxVWgX2QIDAQABo4GiMIGfMAkGA1UdEwQCMAAwHQYD
VR0OBBYEFLwwqOsJv7S5wpdIaFJpn3kAkUXaMFEGA1UdIwRKMEiAFBA/n4vrbeE4
vdRInrrVE5e9Lq/hoRqkGDAWMRQwEgYDVQQDDAtFYXN5LVJTQSBDQYIUUUNcTb0P
A4NVMvrZKC5KmCneq/UwEwYDVR0lBAwwCgYIKwYBBQUHAwIwCwYDVR0PBAQDAgeA
MA0GCSqGSIb3DQEBCwUAA4IBAQAvrL5u6q+YLnd6mAuYCdnnAlo6ctmUd0XLb33H
jPlmyqDCyeCOTaC6Gxpb0me6zRB1Z0d2bpf4NiPIueMY9A8BTMMICV6iqQBoVoqn
reb1QdLjT3FuBcIv9d5evvtdBnKCbFBRKvfEOMO5PFcGbDfCKDkNQgtN+oKUZIvn
O7QO0Jr5gWyqLK3zyzBVzYWjFKYXRbEeAc0Bm92dYd5Ivk41sB8NU9mmmyf59stO
vLA/WTHLe5Zg830X4IscZC55NFTPXl61Gnu3YJYN59XAWxSLzl6igEyI/kvB6BvU
XBURVYdgakIxG9CyBirRpiyaD+evhtgQ5cvuhAqXH8ZcZ18d
-----END CERTIFICATE-----
